target datalayout = "e-m:e-p270:32:32-p271:32:32-p272:64:64-i64:64-i128:128-f80:128-n8:16:32:64-S128"
target triple = "x86_64-pc-linux-gnu"

%struct.AA_DIST_POINT_st = type { ptr, ptr, i32, i32, i32, i32, i32 }
%struct.BIT_STRING_BITNAME_st = type { i32, ptr, ptr }

@.str.43 = private unnamed_addr constant [1 x i8] zeroinitializer, align 1
@.str.50 = private unnamed_addr constant [2 x i8] c"\0A\00", align 1
@.str.52 = private unnamed_addr constant [11 x i8] c"%*s%s:\0A%*s\00", align 1
@.str.53 = private unnamed_addr constant [3 x i8] c", \00", align 1
@.str.54 = private unnamed_addr constant [9 x i8] c"<EMPTY>\0A\00", align 1
@.str.55 = private unnamed_addr constant [8 x i8] c"Reasons\00", align 1
@.str.60 = private unnamed_addr constant [18 x i8] c"%*sIndirect CRL: \00", align 1
@.str.61 = private unnamed_addr constant [42 x i8] c"%*sContains User Attribute Certificates: \00", align 1
@.str.62 = private unnamed_addr constant [52 x i8] c"%*sContains Attribute Authority (AA) Certificates: \00", align 1
@.str.63 = private unnamed_addr constant [64 x i8] c"%*sContains Source Of Authority (SOA) Public Key Certificates: \00", align 1
@.str.64 = private unnamed_addr constant [5 x i8] c"TRUE\00", align 1
@.str.65 = private unnamed_addr constant [6 x i8] c"FALSE\00", align 1

; Function Attrs: nounwind uwtable
define internal i32 @print_boolean(ptr noundef %0, i32 noundef %1) #0 {
  %3 = alloca ptr, align 8
  %4 = alloca i32, align 4
  store ptr %0, ptr %3, align 8, !tbaa !37
  store i32 %1, ptr %4, align 4, !tbaa !16
  %5 = load ptr, ptr %3, align 8, !tbaa !37
  %6 = load i32, ptr %4, align 4, !tbaa !16
  %7 = icmp ne i32 %6, 0
  %8 = select i1 %7, ptr @.str.64, ptr @.str.65
  %9 = call i32 @BIO_puts(ptr noundef %5, ptr noundef %8)
  ret i32 %9
}

; Function Attrs: nounwind uwtable
define internal i32 @print_reasons(ptr noundef %0, ptr noundef %1, ptr noundef %2, i32 noundef %3) #0 {
  %5 = alloca ptr, align 8
  %6 = alloca ptr, align 8
  %7 = alloca ptr, align 8
  %8 = alloca i32, align 4
  %9 = alloca i32, align 4
  %10 = alloca ptr, align 8
  store ptr %0, ptr %5, align 8, !tbaa !37
  store ptr %1, ptr %6, align 8, !tbaa !57
  store ptr %2, ptr %7, align 8, !tbaa !93
  store i32 %3, ptr %8, align 4, !tbaa !16
  call void @llvm.lifetime.start.p0(i64 4, ptr %9) #5
  store i32 1, ptr %9, align 4, !tbaa !16
  call void @llvm.lifetime.start.p0(i64 8, ptr %10) #5
  %11 = load ptr, ptr %5, align 8, !tbaa !37
  %12 = load i32, ptr %8, align 4, !tbaa !16
  %13 = load ptr, ptr %6, align 8, !tbaa !57
  %14 = load i32, ptr %8, align 4, !tbaa !16
  %15 = add nsw i32 %14, 2
  %16 = call i32 (ptr, ptr, ...) @BIO_printf(ptr noundef %11, ptr noundef @.str.52, i32 noundef %12, ptr noundef @.str.43, ptr noundef %13, i32 noundef %15, ptr noundef @.str.43)
  store ptr @reason_flags, ptr %10, align 8, !tbaa !94
  br label %17

17:                                               ; preds = %43, %4
  %18 = load ptr, ptr %10, align 8, !tbaa !94
  %19 = getelementptr inbounds nuw %struct.BIT_STRING_BITNAME_st, ptr %18, i32 0, i32 1
  %20 = load ptr, ptr %19, align 8, !tbaa !96
  %21 = icmp ne ptr %20, null
  br i1 %21, label %22, label %46

22:                                               ; preds = %17
  %23 = load ptr, ptr %7, align 8, !tbaa !93
  %24 = load ptr, ptr %10, align 8, !tbaa !94
  %25 = getelementptr inbounds nuw %struct.BIT_STRING_BITNAME_st, ptr %24, i32 0, i32 0
  %26 = load i32, ptr %25, align 8, !tbaa !99
  %27 = call i32 @ASN1_BIT_STRING_get_bit(ptr noundef %23, i32 noundef %26)
  %28 = icmp ne i32 %27, 0
  br i1 %28, label %29, label %42

29:                                               ; preds = %22
  %30 = load i32, ptr %9, align 4, !tbaa !16
  %31 = icmp ne i32 %30, 0
  br i1 %31, label %32, label %33

32:                                               ; preds = %29
  store i32 0, ptr %9, align 4, !tbaa !16
  br label %36

33:                                               ; preds = %29
  %34 = load ptr, ptr %5, align 8, !tbaa !37
  %35 = call i32 @BIO_puts(ptr noundef %34, ptr noundef @.str.53)
  br label %36

36:                                               ; preds = %33, %32
  %37 = load ptr, ptr %5, align 8, !tbaa !37
  %38 = load ptr, ptr %10, align 8, !tbaa !94
  %39 = getelementptr inbounds nuw %struct.BIT_STRING_BITNAME_st, ptr %38, i32 0, i32 1
  %40 = load ptr, ptr %39, align 8, !tbaa !96
  %41 = call i32 @BIO_puts(ptr noundef %37, ptr noundef %40)
  br label %42

42:                                               ; preds = %36, %22
  br label %43

43:                                               ; preds = %42
  %44 = load ptr, ptr %10, align 8, !tbaa !94
  %45 = getelementptr inbounds nuw %struct.BIT_STRING_BITNAME_st, ptr %44, i32 1
  store ptr %45, ptr %10, align 8, !tbaa !94
  br label %17, !llvm.loop !108

46:                                               ; preds = %17
  %47 = load i32, ptr %9, align 4, !tbaa !16
  %48 = icmp ne i32 %47, 0
  br i1 %48, label %49, label %52

49:                                               ; preds = %46
  %50 = load ptr, ptr %5, align 8, !tbaa !37
  %51 = call i32 @BIO_puts(ptr noundef %50, ptr noundef @.str.54)
  br label %55

52:                                               ; preds = %46
  %53 = load ptr, ptr %5, align 8, !tbaa !37
  %54 = call i32 @BIO_puts(ptr noundef %53, ptr noundef @.str.50)
  br label %55

55:                                               ; preds = %52, %49
  call void @llvm.lifetime.end.p0(i64 8, ptr %10) #5
  call void @llvm.lifetime.end.p0(i64 4, ptr %9) #5
  ret i32 1
}

; Function Attrs: nounwind uwtable
define internal i32 @i2r_aaidp(ptr noundef %0, ptr noundef %1, ptr noundef %2, i32 noundef %3) #0 {
  %5 = alloca i32, align 4
  %6 = alloca ptr, align 8
  %7 = alloca ptr, align 8
  %8 = alloca ptr, align 8
  %9 = alloca i32, align 4
  %10 = alloca ptr, align 8
  %11 = alloca i32, align 4
  store ptr %0, ptr %6, align 8, !tbaa !3
  store ptr %1, ptr %7, align 8, !tbaa !20
  store ptr %2, ptr %8, align 8, !tbaa !37
  store i32 %3, ptr %9, align 4, !tbaa !16
  call void @llvm.lifetime.start.p0(i64 8, ptr %10) #5
  %12 = load ptr, ptr %7, align 8, !tbaa !20
  store ptr %12, ptr %10, align 8, !tbaa !75
  %13 = load ptr, ptr %10, align 8, !tbaa !75
  %14 = getelementptr inbounds nuw %struct.AA_DIST_POINT_st, ptr %13, i32 0, i32 0
  %15 = load ptr, ptr %14, align 8, !tbaa !77
  %16 = icmp ne ptr %15, null
  br i1 %16, label %17, label %27

17:                                               ; preds = %4
  %18 = load ptr, ptr %8, align 8, !tbaa !37
  %19 = load ptr, ptr %10, align 8, !tbaa !75
  %20 = getelementptr inbounds nuw %struct.AA_DIST_POINT_st, ptr %19, i32 0, i32 0
  %21 = load ptr, ptr %20, align 8, !tbaa !77
  %22 = load i32, ptr %9, align 4, !tbaa !16
  %23 = call i32 @print_distpoint(ptr noundef %18, ptr noundef %21, i32 noundef %22)
  %24 = icmp sle i32 %23, 0
  br i1 %24, label %25, label %26

25:                                               ; preds = %17
  store i32 0, ptr %5, align 4
  store i32 1, ptr %11, align 4
  br label %143

26:                                               ; preds = %17
  br label %27

27:                                               ; preds = %26, %4
  %28 = load ptr, ptr %10, align 8, !tbaa !75
  %29 = getelementptr inbounds nuw %struct.AA_DIST_POINT_st, ptr %28, i32 0, i32 1
  %30 = load ptr, ptr %29, align 8, !tbaa !79
  %31 = icmp ne ptr %30, null
  br i1 %31, label %32, label %42

32:                                               ; preds = %27
  %33 = load ptr, ptr %8, align 8, !tbaa !37
  %34 = load ptr, ptr %10, align 8, !tbaa !75
  %35 = getelementptr inbounds nuw %struct.AA_DIST_POINT_st, ptr %34, i32 0, i32 1
  %36 = load ptr, ptr %35, align 8, !tbaa !79
  %37 = load i32, ptr %9, align 4, !tbaa !16
  %38 = call i32 @print_reasons(ptr noundef %33, ptr noundef @.str.55, ptr noundef %36, i32 noundef %37)
  %39 = icmp sle i32 %38, 0
  br i1 %39, label %40, label %41

40:                                               ; preds = %32
  store i32 0, ptr %5, align 4
  store i32 1, ptr %11, align 4
  br label %143

41:                                               ; preds = %32
  br label %42

42:                                               ; preds = %41, %27
  %43 = load ptr, ptr %10, align 8, !tbaa !75
  %44 = getelementptr inbounds nuw %struct.AA_DIST_POINT_st, ptr %43, i32 0, i32 3
  %45 = load i32, ptr %44, align 4, !tbaa !80
  %46 = icmp ne i32 %45, 0
  br i1 %46, label %47, label %67

47:                                               ; preds = %42
  %48 = load ptr, ptr %8, align 8, !tbaa !37
  %49 = load i32, ptr %9, align 4, !tbaa !16
  %50 = call i32 (ptr, ptr, ...) @BIO_printf(ptr noundef %48, ptr noundef @.str.60, i32 noundef %49, ptr noundef @.str.43)
  %51 = icmp sle i32 %50, 0
  br i1 %51, label %52, label %53

52:                                               ; preds = %47
  store i32 0, ptr %5, align 4
  store i32 1, ptr %11, align 4
  br label %143

53:                                               ; preds = %47
  %54 = load ptr, ptr %8, align 8, !tbaa !37
  %55 = load ptr, ptr %10, align 8, !tbaa !75
  %56 = getelementptr inbounds nuw %struct.AA_DIST_POINT_st, ptr %55, i32 0, i32 3
  %57 = load i32, ptr %56, align 4, !tbaa !80
  %58 = call i32 @print_boolean(ptr noundef %54, i32 noundef %57)
  %59 = icmp sle i32 %58, 0
  br i1 %59, label %60, label %61

60:                                               ; preds = %53
  store i32 0, ptr %5, align 4
  store i32 1, ptr %11, align 4
  br label %143

61:                                               ; preds = %53
  %62 = load ptr, ptr %8, align 8, !tbaa !37
  %63 = call i32 @BIO_puts(ptr noundef %62, ptr noundef @.str.50)
  %64 = icmp sle i32 %63, 0
  br i1 %64, label %65, label %66

65:                                               ; preds = %61
  store i32 0, ptr %5, align 4
  store i32 1, ptr %11, align 4
  br label %143

66:                                               ; preds = %61
  br label %67

67:                                               ; preds = %66, %42
  %68 = load ptr, ptr %10, align 8, !tbaa !75
  %69 = getelementptr inbounds nuw %struct.AA_DIST_POINT_st, ptr %68, i32 0, i32 4
  %70 = load i32, ptr %69, align 8, !tbaa !81
  %71 = icmp ne i32 %70, 0
  br i1 %71, label %72, label %92

72:                                               ; preds = %67
  %73 = load ptr, ptr %8, align 8, !tbaa !37
  %74 = load i32, ptr %9, align 4, !tbaa !16
  %75 = call i32 (ptr, ptr, ...) @BIO_printf(ptr noundef %73, ptr noundef @.str.61, i32 noundef %74, ptr noundef @.str.43)
  %76 = icmp sle i32 %75, 0
  br i1 %76, label %77, label %78

77:                                               ; preds = %72
  store i32 0, ptr %5, align 4
  store i32 1, ptr %11, align 4
  br label %143

78:                                               ; preds = %72
  %79 = load ptr, ptr %8, align 8, !tbaa !37
  %80 = load ptr, ptr %10, align 8, !tbaa !75
  %81 = getelementptr inbounds nuw %struct.AA_DIST_POINT_st, ptr %80, i32 0, i32 4
  %82 = load i32, ptr %81, align 8, !tbaa !81
  %83 = call i32 @print_boolean(ptr noundef %79, i32 noundef %82)
  %84 = icmp sle i32 %83, 0
  br i1 %84, label %85, label %86

85:                                               ; preds = %78
  store i32 0, ptr %5, align 4
  store i32 1, ptr %11, align 4
  br label %143

86:                                               ; preds = %78
  %87 = load ptr, ptr %8, align 8, !tbaa !37
  %88 = call i32 @BIO_puts(ptr noundef %87, ptr noundef @.str.50)
  %89 = icmp sle i32 %88, 0
  br i1 %89, label %90, label %91

90:                                               ; preds = %86
  store i32 0, ptr %5, align 4
  store i32 1, ptr %11, align 4
  br label %143

91:                                               ; preds = %86
  br label %92

92:                                               ; preds = %91, %67
  %93 = load ptr, ptr %10, align 8, !tbaa !75
  %94 = getelementptr inbounds nuw %struct.AA_DIST_POINT_st, ptr %93, i32 0, i32 5
  %95 = load i32, ptr %94, align 4, !tbaa !82
  %96 = icmp ne i32 %95, 0
  br i1 %96, label %97, label %117

97:                                               ; preds = %92
  %98 = load ptr, ptr %8, align 8, !tbaa !37
  %99 = load i32, ptr %9, align 4, !tbaa !16
  %100 = call i32 (ptr, ptr, ...) @BIO_printf(ptr noundef %98, ptr noundef @.str.62, i32 noundef %99, ptr noundef @.str.43)
  %101 = icmp sle i32 %100, 0
  br i1 %101, label %102, label %103

102:                                              ; preds = %97
  store i32 0, ptr %5, align 4
  store i32 1, ptr %11, align 4
  br label %143

103:                                              ; preds = %97
  %104 = load ptr, ptr %8, align 8, !tbaa !37
  %105 = load ptr, ptr %10, align 8, !tbaa !75
  %106 = getelementptr inbounds nuw %struct.AA_DIST_POINT_st, ptr %105, i32 0, i32 5
  %107 = load i32, ptr %106, align 4, !tbaa !82
  %108 = call i32 @print_boolean(ptr noundef %104, i32 noundef %107)
  %109 = icmp sle i32 %108, 0
  br i1 %109, label %110, label %111

110:                                              ; preds = %103
  store i32 0, ptr %5, align 4
  store i32 1, ptr %11, align 4
  br label %143

111:                                              ; preds = %103
  %112 = load ptr, ptr %8, align 8, !tbaa !37
  %113 = call i32 @BIO_puts(ptr noundef %112, ptr noundef @.str.50)
  %114 = icmp sle i32 %113, 0
  br i1 %114, label %115, label %116

115:                                              ; preds = %111
  store i32 0, ptr %5, align 4
  store i32 1, ptr %11, align 4
  br label %143

116:                                              ; preds = %111
  br label %117

117:                                              ; preds = %116, %92
  %118 = load ptr, ptr %10, align 8, !tbaa !75
  %119 = getelementptr inbounds nuw %struct.AA_DIST_POINT_st, ptr %118, i32 0, i32 6
  %120 = load i32, ptr %119, align 8, !tbaa !83
  %121 = icmp ne i32 %120, 0
  br i1 %121, label %122, label %142

122:                                              ; preds = %117
  %123 = load ptr, ptr %8, align 8, !tbaa !37
  %124 = load i32, ptr %9, align 4, !tbaa !16
  %125 = call i32 (ptr, ptr, ...) @BIO_printf(ptr noundef %123, ptr noundef @.str.63, i32 noundef %124, ptr noundef @.str.43)
  %126 = icmp sle i32 %125, 0
  br i1 %126, label %127, label %128

127:                                              ; preds = %122
  store i32 0, ptr %5, align 4
  store i32 1, ptr %11, align 4
  br label %143

128:                                              ; preds = %122
  %129 = load ptr, ptr %8, align 8, !tbaa !37
  %130 = load ptr, ptr %10, align 8, !tbaa !75
  %131 = getelementptr inbounds nuw %struct.AA_DIST_POINT_st, ptr %130, i32 0, i32 6
  %132 = load i32, ptr %131, align 8, !tbaa !83
  %133 = call i32 @print_boolean(ptr noundef %129, i32 noundef %132)
  %134 = icmp sle i32 %133, 0
  br i1 %134, label %135, label %136

135:                                              ; preds = %128
  store i32 0, ptr %5, align 4
  store i32 1, ptr %11, align 4
  br label %143

136:                                              ; preds = %128
  %137 = load ptr, ptr %8, align 8, !tbaa !37
  %138 = call i32 @BIO_puts(ptr noundef %137, ptr noundef @.str.50)
  %139 = icmp sle i32 %138, 0
  br i1 %139, label %140, label %141

140:                                              ; preds = %136
  store i32 0, ptr %5, align 4
  store i32 1, ptr %11, align 4
  br label %143

141:                                              ; preds = %136
  br label %142

142:                                              ; preds = %141, %117
  store i32 1, ptr %5, align 4
  store i32 1, ptr %11, align 4
  br label %143

143:                                              ; preds = %142, %140, %135, %127, %115, %110, %102, %90, %85, %77, %65, %60, %52, %40, %25
  call void @llvm.lifetime.end.p0(i64 8, ptr %10) #5
  %144 = load i32, ptr %5, align 4
  ret i32 %144
}