; Function Attrs: nounwind uwtable
define internal range(i32 0, 2) i32 @i2r_aaidp(ptr readnone captures(none) %0, ptr noundef readonly captures(none) %1, ptr noundef %2, i32 noundef %3) #1 {
  %5 = load ptr, ptr %1, align 8, !tbaa !41
  %.not = icmp eq ptr %5, null
  br i1 %.not, label %7, label %6

6:                                                ; preds = %4
  tail call fastcc void @print_distpoint(ptr noundef %2, ptr noundef %5, i32 noundef %3)
  br label %7

7:                                                ; preds = %6, %4
  %8 = getelementptr inbounds nuw i8, ptr %1, i64 8
  %9 = load ptr, ptr %8, align 8, !tbaa !43
  %.not35 = icmp eq ptr %9, null
  br i1 %.not35, label %29, label %10

10:                                               ; preds = %7
  %11 = add nsw i32 %3, 2
  %12 = tail call i32 (ptr, ptr, ...) @BIO_printf(ptr noundef %2, ptr noundef nonnull @.str.52, i32 noundef %3, ptr noundef nonnull @.str.43, ptr noundef nonnull @.str.55, i32 noundef %11, ptr noundef nonnull @.str.43) #5
  br label %.outer.i

.outer.i:                                         ; preds = %.thread.i, %10
  %.ph.i = phi ptr [ %26, %.thread.i ], [ @.str.10, %10 ]
  %.019.ph.i = phi ptr [ %24, %.thread.i ], [ @reason_flags, %10 ]
  %.not17.i = phi i1 [ true, %.thread.i ], [ false, %10 ]
  %13 = load i32, ptr %.019.ph.i, align 8, !tbaa !25
  %14 = tail call i32 @ASN1_BIT_STRING_get_bit(ptr noundef nonnull %9, i32 noundef %13) #5
  %.not16.i47 = icmp eq i32 %14, 0
  br i1 %.not16.i47, label %.lr.ph, label %._crit_edge

15:                                               ; preds = %.lr.ph
  %16 = getelementptr inbounds nuw i8, ptr %.019.i48, i64 24
  %17 = load i32, ptr %16, align 8, !tbaa !25
  %18 = tail call i32 @ASN1_BIT_STRING_get_bit(ptr noundef nonnull %9, i32 noundef %17) #5
  %.not16.i = icmp eq i32 %18, 0
  br i1 %.not16.i, label %.lr.ph, label %._crit_edge, !llvm.loop !27

._crit_edge:                                      ; preds = %15, %.outer.i
  %.lcssa = phi ptr [ %.ph.i, %.outer.i ], [ %22, %15 ]
  %.019.i.lcssa = phi ptr [ %.019.ph.i, %.outer.i ], [ %16, %15 ]
  br i1 %.not17.i, label %19, label %.thread.i

19:                                               ; preds = %._crit_edge
  %20 = tail call i32 @BIO_puts(ptr noundef %2, ptr noundef nonnull @.str.53) #5
  br label %.thread.i

.lr.ph:                                           ; preds = %.outer.i, %15
  %.019.i48 = phi ptr [ %16, %15 ], [ %.019.ph.i, %.outer.i ]
  %21 = getelementptr inbounds nuw i8, ptr %.019.i48, i64 32
  %22 = load ptr, ptr %21, align 8, !tbaa !28
  %.not.i = icmp eq ptr %22, null
  br i1 %.not.i, label %27, label %15, !llvm.loop !27

.thread.i:                                        ; preds = %19, %._crit_edge
  %23 = tail call i32 @BIO_puts(ptr noundef %2, ptr noundef nonnull %.lcssa) #5
  %24 = getelementptr inbounds nuw i8, ptr %.019.i.lcssa, i64 24
  %25 = getelementptr inbounds nuw i8, ptr %.019.i.lcssa, i64 32
  %26 = load ptr, ptr %25, align 8, !tbaa !28
  %.not21.i = icmp eq ptr %26, null
  br i1 %.not21.i, label %.thread23.i, label %.outer.i, !llvm.loop !27

27:                                               ; preds = %.lr.ph
  br i1 %.not17.i, label %.thread23.i, label %print_reasons.exit

.thread23.i:                                      ; preds = %.thread.i, %27
  br label %print_reasons.exit

print_reasons.exit:                               ; preds = %27, %.thread23.i
  %.str.50.sink.i = phi ptr [ @.str.50, %.thread23.i ], [ @.str.54, %27 ]
  %28 = tail call i32 @BIO_puts(ptr noundef %2, ptr noundef nonnull %.str.50.sink.i) #5
  br label %29

29:                                               ; preds = %print_reasons.exit, %7
  %30 = getelementptr inbounds nuw i8, ptr %1, i64 20
  %31 = load i32, ptr %30, align 4, !tbaa !44
  %.not36 = icmp eq i32 %31, 0
  br i1 %.not36, label %43, label %32

32:                                               ; preds = %29
  %33 = tail call i32 (ptr, ptr, ...) @BIO_printf(ptr noundef %2, ptr noundef nonnull @.str.60, i32 noundef %3, ptr noundef nonnull @.str.43) #5
  %34 = icmp slt i32 %33, 1
  br i1 %34, label %86, label %35

35:                                               ; preds = %32
  %36 = load i32, ptr %30, align 4, !tbaa !44
  %.not.i40 = icmp eq i32 %36, 0
  %37 = select i1 %.not.i40, ptr @.str.65, ptr @.str.64
  %38 = tail call i32 @BIO_puts(ptr noundef %2, ptr noundef nonnull %37) #5
  %39 = icmp slt i32 %38, 1
  br i1 %39, label %86, label %40

40:                                               ; preds = %35
  %41 = tail call i32 @BIO_puts(ptr noundef %2, ptr noundef nonnull @.str.50) #5
  %42 = icmp slt i32 %41, 1
  br i1 %42, label %86, label %43

43:                                               ; preds = %40, %29
  %44 = getelementptr inbounds nuw i8, ptr %1, i64 24
  %45 = load i32, ptr %44, align 8, !tbaa !45
  %.not37 = icmp eq i32 %45, 0
  br i1 %.not37, label %57, label %46

46:                                               ; preds = %43
  %47 = tail call i32 (ptr, ptr, ...) @BIO_printf(ptr noundef %2, ptr noundef nonnull @.str.61, i32 noundef %3, ptr noundef nonnull @.str.43) #5
  %48 = icmp slt i32 %47, 1
  br i1 %48, label %86, label %49

49:                                               ; preds = %46
  %50 = load i32, ptr %44, align 8, !tbaa !45
  %.not.i41 = icmp eq i32 %50, 0
  %51 = select i1 %.not.i41, ptr @.str.65, ptr @.str.64
  %52 = tail call i32 @BIO_puts(ptr noundef %2, ptr noundef nonnull %51) #5
  %53 = icmp slt i32 %52, 1
  br i1 %53, label %86, label %54

54:                                               ; preds = %49
  %55 = tail call i32 @BIO_puts(ptr noundef %2, ptr noundef nonnull @.str.50) #5
  %56 = icmp slt i32 %55, 1
  br i1 %56, label %86, label %57

57:                                               ; preds = %54, %43
  %58 = getelementptr inbounds nuw i8, ptr %1, i64 28
  %59 = load i32, ptr %58, align 4, !tbaa !46
  %.not38 = icmp eq i32 %59, 0
  br i1 %.not38, label %71, label %60

60:                                               ; preds = %57
  %61 = tail call i32 (ptr, ptr, ...) @BIO_printf(ptr noundef %2, ptr noundef nonnull @.str.62, i32 noundef %3, ptr noundef nonnull @.str.43) #5
  %62 = icmp slt i32 %61, 1
  br i1 %62, label %86, label %63

63:                                               ; preds = %60
  %64 = load i32, ptr %58, align 4, !tbaa !46
  %.not.i42 = icmp eq i32 %64, 0
  %65 = select i1 %.not.i42, ptr @.str.65, ptr @.str.64
  %66 = tail call i32 @BIO_puts(ptr noundef %2, ptr noundef nonnull %65) #5
  %67 = icmp slt i32 %66, 1
  br i1 %67, label %86, label %68

68:                                               ; preds = %63
  %69 = tail call i32 @BIO_puts(ptr noundef %2, ptr noundef nonnull @.str.50) #5
  %70 = icmp slt i32 %69, 1
  br i1 %70, label %86, label %71

71:                                               ; preds = %68, %57
  %72 = getelementptr inbounds nuw i8, ptr %1, i64 32
  %73 = load i32, ptr %72, align 8, !tbaa !47
  %.not39 = icmp eq i32 %73, 0
  br i1 %.not39, label %85, label %74

74:                                               ; preds = %71
  %75 = tail call i32 (ptr, ptr, ...) @BIO_printf(ptr noundef %2, ptr noundef nonnull @.str.63, i32 noundef %3, ptr noundef nonnull @.str.43) #5
  %76 = icmp slt i32 %75, 1
  br i1 %76, label %86, label %77

77:                                               ; preds = %74
  %78 = load i32, ptr %72, align 8, !tbaa !47
  %.not.i43 = icmp eq i32 %78, 0
  %79 = select i1 %.not.i43, ptr @.str.65, ptr @.str.64
  %80 = tail call i32 @BIO_puts(ptr noundef %2, ptr noundef nonnull %79) #5
  %81 = icmp slt i32 %80, 1
  br i1 %81, label %86, label %82

82:                                               ; preds = %77
  %83 = tail call i32 @BIO_puts(ptr noundef %2, ptr noundef nonnull @.str.50) #5
  %84 = icmp slt i32 %83, 1
  br i1 %84, label %86, label %85

85:                                               ; preds = %82, %71
  br label %86

86:                                               ; preds = %82, %77, %74, %68, %63, %60, %54, %49, %46, %40, %35, %32, %85
  %.0 = phi i32 [ 1, %85 ], [ 0, %32 ], [ 0, %35 ], [ 0, %40 ], [ 0, %46 ], [ 0, %49 ], [ 0, %54 ], [ 0, %60 ], [ 0, %63 ], [ 0, %68 ], [ 0, %74 ], [ 0, %77 ], [ 0, %82 ]
  ret i32 %.0
}